target datalayout = "e-m:e-p270:32:32-p271:32:32-p272:64:64-i64:64-i128:128-f80:128-n8:16:32:64-S128"
target triple = "x86_64-unknown-linux-gnu"

%"struct.llvh::itanium_demangle::Db" = type { ptr, ptr, %"class.llvh::itanium_demangle::PODSmallVector", %"class.llvh::itanium_demangle::PODSmallVector", %"class.llvh::itanium_demangle::PODSmallVector.0", %"class.llvh::itanium_demangle::PODSmallVector.1", ptr, ptr, i8, i8, i8, [13 x i8], %"class.(anonymous namespace)::DefaultAllocator" }
%"class.llvh::itanium_demangle::PODSmallVector" = type { ptr, ptr, ptr, [32 x ptr] }
%"class.llvh::itanium_demangle::PODSmallVector.0" = type { ptr, ptr, ptr, [8 x ptr] }
%"class.llvh::itanium_demangle::PODSmallVector.1" = type { ptr, ptr, ptr, [4 x ptr] }
%"class.(anonymous namespace)::DefaultAllocator" = type { %"class.(anonymous namespace)::BumpPointerAllocator" }
%"class.(anonymous namespace)::BumpPointerAllocator" = type { [4096 x i8], ptr, [8 x i8] }
%"struct.llvh::ItaniumPartialDemangler" = type { ptr, ptr }
%"struct.(anonymous namespace)::BumpPointerAllocator::BlockMeta" = type { ptr, i64 }

; Function Attrs: mustprogress nounwind uwtable
define internal void @_ZN12_GLOBAL__N_120BumpPointerAllocatorC2Ev(ptr noundef nonnull align 16 dereferenceable(4104) %this) unnamed_addr #0 align 2 {
entry:
  %this.addr = alloca ptr, align 8
  store ptr %this, ptr %this.addr, align 8
  %this1 = load ptr, ptr %this.addr, align 8
  %BlockList = getelementptr inbounds %"class.(anonymous namespace)::BumpPointerAllocator", ptr %this1, i32 0, i32 1
  %InitialBuffer = getelementptr inbounds %"class.(anonymous namespace)::BumpPointerAllocator", ptr %this1, i32 0, i32 0
  %arraydecay = getelementptr inbounds [4096 x i8], ptr %InitialBuffer, i64 0, i64 0
  %Next = getelementptr inbounds %"struct.(anonymous namespace)::BumpPointerAllocator::BlockMeta", ptr %arraydecay, i32 0, i32 0
  store ptr null, ptr %Next, align 16
  %Current = getelementptr inbounds %"struct.(anonymous namespace)::BumpPointerAllocator::BlockMeta", ptr %arraydecay, i32 0, i32 1
  store i64 0, ptr %Current, align 8
  store ptr %arraydecay, ptr %BlockList, align 16
  ret void
}

; Function Attrs: mustprogress nounwind uwtable
define internal void @_ZN12_GLOBAL__N_116DefaultAllocatorC2Ev(ptr noundef nonnull align 16 dereferenceable(4112) %this) unnamed_addr #0 align 2 {
entry:
  %this.addr = alloca ptr, align 8
  store ptr %this, ptr %this.addr, align 8
  %this1 = load ptr, ptr %this.addr, align 8
  %Alloc = getelementptr inbounds %"class.(anonymous namespace)::DefaultAllocator", ptr %this1, i32 0, i32 0
  call void @_ZN12_GLOBAL__N_120BumpPointerAllocatorC2Ev(ptr noundef nonnull align 16 dereferenceable(4104) %Alloc)
  ret void
}

; Function Attrs: mustprogress nounwind uwtable
define linkonce_odr hidden void @_ZN4llvh16itanium_demangle14PODSmallVectorIPNS0_24ForwardTemplateReferenceELm4EEC2Ev(ptr noundef nonnull align 8 dereferenceable(56) %this) unnamed_addr #0 comdat align 2 {
entry:
  %this.addr = alloca ptr, align 8
  store ptr %this, ptr %this.addr, align 8
  %this1 = load ptr, ptr %this.addr, align 8
  %First = getelementptr inbounds %"class.llvh::itanium_demangle::PODSmallVector.1", ptr %this1, i32 0, i32 0
  %Inline = getelementptr inbounds %"class.llvh::itanium_demangle::PODSmallVector.1", ptr %this1, i32 0, i32 3
  %arraydecay = getelementptr inbounds [4 x ptr], ptr %Inline, i64 0, i64 0
  store ptr %arraydecay, ptr %First, align 8
  %Last = getelementptr inbounds %"class.llvh::itanium_demangle::PODSmallVector.1", ptr %this1, i32 0, i32 1
  %First2 = getelementptr inbounds %"class.llvh::itanium_demangle::PODSmallVector.1", ptr %this1, i32 0, i32 0
  %0 = load ptr, ptr %First2, align 8
  store ptr %0, ptr %Last, align 8
  %Cap = getelementptr inbounds %"class.llvh::itanium_demangle::PODSmallVector.1", ptr %this1, i32 0, i32 2
  %Inline3 = getelementptr inbounds %"class.llvh::itanium_demangle::PODSmallVector.1", ptr %this1, i32 0, i32 3
  %arraydecay4 = getelementptr inbounds [4 x ptr], ptr %Inline3, i64 0, i64 0
  %add.ptr = getelementptr inbounds ptr, ptr %arraydecay4, i64 4
  store ptr %add.ptr, ptr %Cap, align 8
  ret void
}

; Function Attrs: mustprogress nounwind uwtable
define linkonce_odr hidden void @_ZN4llvh16itanium_demangle14PODSmallVectorIPNS0_4NodeELm8EEC2Ev(ptr noundef nonnull align 8 dereferenceable(88) %this) unnamed_addr #0 comdat align 2 {
entry:
  %this.addr = alloca ptr, align 8
  store ptr %this, ptr %this.addr, align 8
  %this1 = load ptr, ptr %this.addr, align 8
  %First = getelementptr inbounds %"class.llvh::itanium_demangle::PODSmallVector.0", ptr %this1, i32 0, i32 0
  %Inline = getelementptr inbounds %"class.llvh::itanium_demangle::PODSmallVector.0", ptr %this1, i32 0, i32 3
  %arraydecay = getelementptr inbounds [8 x ptr], ptr %Inline, i64 0, i64 0
  store ptr %arraydecay, ptr %First, align 8
  %Last = getelementptr inbounds %"class.llvh::itanium_demangle::PODSmallVector.0", ptr %this1, i32 0, i32 1
  %First2 = getelementptr inbounds %"class.llvh::itanium_demangle::PODSmallVector.0", ptr %this1, i32 0, i32 0
  %0 = load ptr, ptr %First2, align 8
  store ptr %0, ptr %Last, align 8
  %Cap = getelementptr inbounds %"class.llvh::itanium_demangle::PODSmallVector.0", ptr %this1, i32 0, i32 2
  %Inline3 = getelementptr inbounds %"class.llvh::itanium_demangle::PODSmallVector.0", ptr %this1, i32 0, i32 3
  %arraydecay4 = getelementptr inbounds [8 x ptr], ptr %Inline3, i64 0, i64 0
  %add.ptr = getelementptr inbounds ptr, ptr %arraydecay4, i64 8
  store ptr %add.ptr, ptr %Cap, align 8
  ret void
}

; Function Attrs: mustprogress nounwind uwtable
define linkonce_odr hidden void @_ZN4llvh16itanium_demangle14PODSmallVectorIPNS0_4NodeELm32EEC2Ev(ptr noundef nonnull align 8 dereferenceable(280) %this) unnamed_addr #0 comdat align 2 {
entry:
  %this.addr = alloca ptr, align 8
  store ptr %this, ptr %this.addr, align 8
  %this1 = load ptr, ptr %this.addr, align 8
  %First = getelementptr inbounds %"class.llvh::itanium_demangle::PODSmallVector", ptr %this1, i32 0, i32 0
  %Inline = getelementptr inbounds %"class.llvh::itanium_demangle::PODSmallVector", ptr %this1, i32 0, i32 3
  %arraydecay = getelementptr inbounds [32 x ptr], ptr %Inline, i64 0, i64 0
  store ptr %arraydecay, ptr %First, align 8
  %Last = getelementptr inbounds %"class.llvh::itanium_demangle::PODSmallVector", ptr %this1, i32 0, i32 1
  %First2 = getelementptr inbounds %"class.llvh::itanium_demangle::PODSmallVector", ptr %this1, i32 0, i32 0
  %0 = load ptr, ptr %First2, align 8
  store ptr %0, ptr %Last, align 8
  %Cap = getelementptr inbounds %"class.llvh::itanium_demangle::PODSmallVector", ptr %this1, i32 0, i32 2
  %Inline3 = getelementptr inbounds %"class.llvh::itanium_demangle::PODSmallVector", ptr %this1, i32 0, i32 3
  %arraydecay4 = getelementptr inbounds [32 x ptr], ptr %Inline3, i64 0, i64 0
  %add.ptr = getelementptr inbounds ptr, ptr %arraydecay4, i64 32
  store ptr %add.ptr, ptr %Cap, align 8
  ret void
}

; Function Attrs: mustprogress nounwind uwtable
define internal void @_ZN4llvh16itanium_demangle2DbIN12_GLOBAL__N_116DefaultAllocatorEEC2EPKcS6_(ptr noundef nonnull align 16 dereferenceable(4864) %this, ptr noundef %First_, ptr noundef %Last_) unnamed_addr #0 align 2 {
entry:
  %this.addr = alloca ptr, align 8
  %First_.addr = alloca ptr, align 8
  %Last_.addr = alloca ptr, align 8
  store ptr %this, ptr %this.addr, align 8
  store ptr %First_, ptr %First_.addr, align 8
  store ptr %Last_, ptr %Last_.addr, align 8
  %this1 = load ptr, ptr %this.addr, align 8
  %First = getelementptr inbounds %"struct.llvh::itanium_demangle::Db", ptr %this1, i32 0, i32 0
  %0 = load ptr, ptr %First_.addr, align 8
  store ptr %0, ptr %First, align 16
  %Last = getelementptr inbounds %"struct.llvh::itanium_demangle::Db", ptr %this1, i32 0, i32 1
  %1 = load ptr, ptr %Last_.addr, align 8
  store ptr %1, ptr %Last, align 8
  %Names = getelementptr inbounds %"struct.llvh::itanium_demangle::Db", ptr %this1, i32 0, i32 2
  call void @_ZN4llvh16itanium_demangle14PODSmallVectorIPNS0_4NodeELm32EEC2Ev(ptr noundef nonnull align 8 dereferenceable(280) %Names)
  %Subs = getelementptr inbounds %"struct.llvh::itanium_demangle::Db", ptr %this1, i32 0, i32 3
  call void @_ZN4llvh16itanium_demangle14PODSmallVectorIPNS0_4NodeELm32EEC2Ev(ptr noundef nonnull align 8 dereferenceable(280) %Subs)
  %TemplateParams = getelementptr inbounds %"struct.llvh::itanium_demangle::Db", ptr %this1, i32 0, i32 4
  call void @_ZN4llvh16itanium_demangle14PODSmallVectorIPNS0_4NodeELm8EEC2Ev(ptr noundef nonnull align 8 dereferenceable(88) %TemplateParams)
  %ForwardTemplateRefs = getelementptr inbounds %"struct.llvh::itanium_demangle::Db", ptr %this1, i32 0, i32 5
  call void @_ZN4llvh16itanium_demangle14PODSmallVectorIPNS0_24ForwardTemplateReferenceELm4EEC2Ev(ptr noundef nonnull align 8 dereferenceable(56) %ForwardTemplateRefs)
  %TypeCallback = getelementptr inbounds %"struct.llvh::itanium_demangle::Db", ptr %this1, i32 0, i32 6
  store ptr null, ptr %TypeCallback, align 16
  %TypeCallbackContext = getelementptr inbounds %"struct.llvh::itanium_demangle::Db", ptr %this1, i32 0, i32 7
  store ptr null, ptr %TypeCallbackContext, align 8
  %TryToParseTemplateArgs = getelementptr inbounds %"struct.llvh::itanium_demangle::Db", ptr %this1, i32 0, i32 8
  store i8 1, ptr %TryToParseTemplateArgs, align 16
  %PermitForwardTemplateReferences = getelementptr inbounds %"struct.llvh::itanium_demangle::Db", ptr %this1, i32 0, i32 9
  store i8 0, ptr %PermitForwardTemplateReferences, align 1
  %ParsingLambdaParams = getelementptr inbounds %"struct.llvh::itanium_demangle::Db", ptr %this1, i32 0, i32 10
  store i8 0, ptr %ParsingLambdaParams, align 2
  %ASTAllocator = getelementptr inbounds %"struct.llvh::itanium_demangle::Db", ptr %this1, i32 0, i32 12
  call void @_ZN12_GLOBAL__N_116DefaultAllocatorC2Ev(ptr noundef nonnull align 16 dereferenceable(4112) %ASTAllocator)
  ret void
}

; Function Attrs: mustprogress nounwind uwtable
define hidden void @_ZN4llvh23ItaniumPartialDemanglerC2Ev(ptr noundef nonnull align 8 dereferenceable(16) %this) unnamed_addr #0 align 2 {
entry:
  %this.addr = alloca ptr, align 8
  store ptr %this, ptr %this.addr, align 8
  %this1 = load ptr, ptr %this.addr, align 8
  %RootNode = getelementptr inbounds %"struct.llvh::ItaniumPartialDemangler", ptr %this1, i32 0, i32 0
  store ptr null, ptr %RootNode, align 8
  %Context = getelementptr inbounds %"struct.llvh::ItaniumPartialDemangler", ptr %this1, i32 0, i32 1
  %call = call noalias noundef nonnull ptr @_Znwm(i64 noundef 4864) #15
  call void @_ZN4llvh16itanium_demangle2DbIN12_GLOBAL__N_116DefaultAllocatorEEC2EPKcS6_(ptr noundef nonnull align 16 dereferenceable(4864) %call, ptr noundef null, ptr noundef null)
  store ptr %call, ptr %Context, align 8
  ret void
}