; Function Attrs: mustprogress nounwind uwtable
define hidden void @_ZN4llvh23ItaniumPartialDemanglerC2Ev(ptr nocapture noundef nonnull writeonly align 8 dereferenceable(16) %this) unnamed_addr #1 align 2 {
entry:
  store ptr null, ptr %this, align 8
  %Context = getelementptr inbounds i8, ptr %this, i64 8
  %call = tail call noalias noundef nonnull dereferenceable(4864) ptr @_Znwm(i64 noundef 4864) #23
  %Names.i = getelementptr inbounds i8, ptr %call, i64 16
  %Inline.i.i = getelementptr inbounds i8, ptr %call, i64 40
  tail call void @llvm.memset.p0.i64(ptr noundef nonnull align 16 dereferenceable(16) %call, i8 0, i64 16, i1 false)
  store ptr %Inline.i.i, ptr %Names.i, align 8
  %Last.i.i = getelementptr inbounds i8, ptr %call, i64 24
  store ptr %Inline.i.i, ptr %Last.i.i, align 8
  %Cap.i.i = getelementptr inbounds i8, ptr %call, i64 32
  %add.ptr.i.i = getelementptr inbounds i8, ptr %call, i64 296
  store ptr %add.ptr.i.i, ptr %Cap.i.i, align 8
  %Inline.i1.i = getelementptr inbounds i8, ptr %call, i64 320
  store ptr %Inline.i1.i, ptr %add.ptr.i.i, align 8
  %Last.i2.i = getelementptr inbounds i8, ptr %call, i64 304
  store ptr %Inline.i1.i, ptr %Last.i2.i, align 8
  %Cap.i3.i = getelementptr inbounds i8, ptr %call, i64 312
  %add.ptr.i4.i = getelementptr inbounds i8, ptr %call, i64 576
  store ptr %add.ptr.i4.i, ptr %Cap.i3.i, align 8
  %Inline.i5.i = getelementptr inbounds i8, ptr %call, i64 600
  store ptr %Inline.i5.i, ptr %add.ptr.i4.i, align 8
  %Last.i6.i = getelementptr inbounds i8, ptr %call, i64 584
  store ptr %Inline.i5.i, ptr %Last.i6.i, align 8
  %Cap.i7.i = getelementptr inbounds i8, ptr %call, i64 592
  %add.ptr.i8.i = getelementptr inbounds i8, ptr %call, i64 664
  store ptr %add.ptr.i8.i, ptr %Cap.i7.i, align 8
  %Inline.i9.i = getelementptr inbounds i8, ptr %call, i64 688
  store ptr %Inline.i9.i, ptr %add.ptr.i8.i, align 8
  %Last.i10.i = getelementptr inbounds i8, ptr %call, i64 672
  store ptr %Inline.i9.i, ptr %Last.i10.i, align 8
  %Cap.i11.i = getelementptr inbounds i8, ptr %call, i64 680
  %add.ptr.i12.i = getelementptr inbounds i8, ptr %call, i64 720
  store ptr %add.ptr.i12.i, ptr %Cap.i11.i, align 8
  %TryToParseTemplateArgs.i = getelementptr inbounds i8, ptr %call, i64 736
  tail call void @llvm.memset.p0.i64(ptr noundef nonnull align 16 dereferenceable(16) %add.ptr.i12.i, i8 0, i64 16, i1 false)
  store i8 1, ptr %TryToParseTemplateArgs.i, align 16
  %PermitForwardTemplateReferences.i = getelementptr inbounds i8, ptr %call, i64 737
  store i8 0, ptr %PermitForwardTemplateReferences.i, align 1
  %ParsingLambdaParams.i = getelementptr inbounds i8, ptr %call, i64 738
  store i8 0, ptr %ParsingLambdaParams.i, align 2
  %ASTAllocator.i = getelementptr inbounds i8, ptr %call, i64 752
  %BlockList.i.i.i = getelementptr inbounds i8, ptr %call, i64 4848
  tail call void @llvm.memset.p0.i64(ptr noundef nonnull align 16 dereferenceable(16) %ASTAllocator.i, i8 0, i64 16, i1 false)
  store ptr %ASTAllocator.i, ptr %BlockList.i.i.i, align 16
  store ptr %call, ptr %Context, align 8
  ret void
}